target datalayout = "e-m:e-p270:32:32-p271:32:32-p272:64:64-i64:64-i128:128-f80:128-n8:16:32:64-S128"
target triple = "x86_64-pc-linux-gnu"

%struct.t_trxframe = type { i32, i8, i32, i8, i64, i8, float, i8, i8, float, i32, i8, ptr, i8, float, i8, ptr, i8, ptr, i8, ptr, i8, [3 x [3 x float]], i8, i32, i8, ptr }

@.str.20 = private unnamed_addr constant [13 x i8] c"frame->atoms\00", align 1
@.str.21 = private unnamed_addr constant [136 x i8] c"generated/home/dtcxzyw/WorkSpace/Projects/compilers/llvm-opt-benchmark/bench/gromacs/gromacs/src/gromacs/trajectory/trajectoryframe.cpp\00", align 1
@.str.22 = private unnamed_addr constant [9 x i8] c"frame->x\00", align 1
@.str.23 = private unnamed_addr constant [9 x i8] c"frame->v\00", align 1
@.str.24 = private unnamed_addr constant [9 x i8] c"frame->f\00", align 1

; Function Attrs: inlinehint mustprogress uwtable
define internal void @_ZL14gmx_sfree_implIA3_fEvPKcS2_iPT_(ptr noundef %0, ptr noundef %1, i32 noundef %2, ptr noundef %3) #4 {
  %5 = alloca ptr, align 8
  %6 = alloca ptr, align 8
  %7 = alloca i32, align 4
  %8 = alloca ptr, align 8
  store ptr %0, ptr %5, align 8, !tbaa !45
  store ptr %1, ptr %6, align 8, !tbaa !45
  store i32 %2, ptr %7, align 4, !tbaa !37
  store ptr %3, ptr %8, align 8, !tbaa !48
  %9 = load ptr, ptr %5, align 8, !tbaa !45
  %10 = load ptr, ptr %6, align 8, !tbaa !45
  %11 = load i32, ptr %7, align 4, !tbaa !37
  %12 = load ptr, ptr %8, align 8, !tbaa !48
  call void @_Z9save_freePKcS0_iPv(ptr noundef %9, ptr noundef %10, i32 noundef %11, ptr noundef %12)
  ret void
}

; Function Attrs: inlinehint mustprogress uwtable
define internal void @_ZL14gmx_sfree_implI7t_atomsEvPKcS2_iPT_(ptr noundef %0, ptr noundef %1, i32 noundef %2, ptr noundef %3) #4 {
  %5 = alloca ptr, align 8
  %6 = alloca ptr, align 8
  %7 = alloca i32, align 4
  %8 = alloca ptr, align 8
  store ptr %0, ptr %5, align 8, !tbaa !45
  store ptr %1, ptr %6, align 8, !tbaa !45
  store i32 %2, ptr %7, align 4, !tbaa !37
  store ptr %3, ptr %8, align 8, !tbaa !47
  %9 = load ptr, ptr %5, align 8, !tbaa !45
  %10 = load ptr, ptr %6, align 8, !tbaa !45
  %11 = load i32, ptr %7, align 4, !tbaa !37
  %12 = load ptr, ptr %8, align 8, !tbaa !47
  call void @_Z9save_freePKcS0_iPv(ptr noundef %9, ptr noundef %10, i32 noundef %11, ptr noundef %12)
  ret void
}

; Function Attrs: mustprogress uwtable
define void @_Z10done_frameP10t_trxframe(ptr noundef %0) #0 {
  %2 = alloca ptr, align 8
  store ptr %0, ptr %2, align 8, !tbaa !9
  %3 = load ptr, ptr %2, align 8, !tbaa !9
  %4 = getelementptr inbounds nuw %struct.t_trxframe, ptr %3, i32 0, i32 12
  %5 = load ptr, ptr %4, align 8, !tbaa !33
  %6 = icmp ne ptr %5, null
  br i1 %6, label %7, label %14

7:                                                ; preds = %1
  %8 = load ptr, ptr %2, align 8, !tbaa !9
  %9 = getelementptr inbounds nuw %struct.t_trxframe, ptr %8, i32 0, i32 12
  %10 = load ptr, ptr %9, align 8, !tbaa !33
  call void @_Z9done_atomP7t_atoms(ptr noundef %10)
  %11 = load ptr, ptr %2, align 8, !tbaa !9
  %12 = getelementptr inbounds nuw %struct.t_trxframe, ptr %11, i32 0, i32 12
  %13 = load ptr, ptr %12, align 8, !tbaa !33
  call void @_ZL14gmx_sfree_implI7t_atomsEvPKcS2_iPT_(ptr noundef @.str.20, ptr noundef @.str.21, i32 noundef 108, ptr noundef %13)
  br label %14

14:                                               ; preds = %7, %1
  %15 = load ptr, ptr %2, align 8, !tbaa !9
  %16 = getelementptr inbounds nuw %struct.t_trxframe, ptr %15, i32 0, i32 16
  %17 = load ptr, ptr %16, align 8, !tbaa !38
  call void @_ZL14gmx_sfree_implIA3_fEvPKcS2_iPT_(ptr noundef @.str.22, ptr noundef @.str.21, i32 noundef 110, ptr noundef %17)
  %18 = load ptr, ptr %2, align 8, !tbaa !9
  %19 = getelementptr inbounds nuw %struct.t_trxframe, ptr %18, i32 0, i32 18
  %20 = load ptr, ptr %19, align 8, !tbaa !40
  call void @_ZL14gmx_sfree_implIA3_fEvPKcS2_iPT_(ptr noundef @.str.23, ptr noundef @.str.21, i32 noundef 111, ptr noundef %20)
  %21 = load ptr, ptr %2, align 8, !tbaa !9
  %22 = getelementptr inbounds nuw %struct.t_trxframe, ptr %21, i32 0, i32 20
  %23 = load ptr, ptr %22, align 8, !tbaa !42
  call void @_ZL14gmx_sfree_implIA3_fEvPKcS2_iPT_(ptr noundef @.str.24, ptr noundef @.str.21, i32 noundef 112, ptr noundef %23)
  ret void
}