; Function Attrs: mustprogress uwtable
define void @_Z10done_frameP10t_trxframe(ptr noundef readonly captures(none) %0) local_unnamed_addr #0 {
  %2 = getelementptr inbounds nuw i8, ptr %0, i64 48
  %3 = load ptr, ptr %2, align 8, !tbaa !27
  %.not = icmp eq ptr %3, null
  br i1 %.not, label %6, label %4

4:                                                ; preds = %1
  tail call void @_Z9done_atomP7t_atoms(ptr noundef nonnull %3)
  %5 = load ptr, ptr %2, align 8, !tbaa !27
  tail call void @_Z9save_freePKcS0_iPv(ptr noundef nonnull @.str.20, ptr noundef nonnull @.str.21, i32 noundef 108, ptr noundef %5)
  br label %6

6:                                                ; preds = %4, %1
  %7 = getelementptr inbounds nuw i8, ptr %0, i64 72
  %8 = load ptr, ptr %7, align 8, !tbaa !32
  tail call void @_Z9save_freePKcS0_iPv(ptr noundef nonnull @.str.22, ptr noundef nonnull @.str.21, i32 noundef 110, ptr noundef %8)
  %9 = getelementptr inbounds nuw i8, ptr %0, i64 88
  %10 = load ptr, ptr %9, align 8, !tbaa !34
  tail call void @_Z9save_freePKcS0_iPv(ptr noundef nonnull @.str.23, ptr noundef nonnull @.str.21, i32 noundef 111, ptr noundef %10)
  %11 = getelementptr inbounds nuw i8, ptr %0, i64 104
  %12 = load ptr, ptr %11, align 8, !tbaa !36
  tail call void @_Z9save_freePKcS0_iPv(ptr noundef nonnull @.str.24, ptr noundef nonnull @.str.21, i32 noundef 112, ptr noundef %12)
  ret void
}